; Function Attrs: nounwind uwtable
define hidden noundef i32 @dom_document_document_element_read(ptr noundef %0, ptr noundef %1) local_unnamed_addr #0 {
  %3 = tail call ptr @dom_object_get_node(ptr noundef %0) #10
  %4 = icmp eq ptr %3, null
  br i1 %4, label %5, label %6

5:                                                ; preds = %2
  tail call void @php_dom_throw_error(i32 noundef 11, i32 noundef 1) #10
  br label %12

6:                                                ; preds = %2
  %7 = tail call ptr @xmlDocGetRootElement(ptr noundef nonnull %3) #10
  %.not = icmp eq ptr %7, null
  br i1 %.not, label %8, label %10

8:                                                ; preds = %6
  %9 = getelementptr inbounds i8, ptr %1, i64 8
  store i32 1, ptr %9, align 8
  br label %12

10:                                               ; preds = %6
  %11 = tail call zeroext i1 @php_dom_create_object(ptr noundef nonnull %7, ptr noundef %1, ptr noundef %0) #10
  br label %12

12:                                               ; preds = %10, %8, %5
  %.0 = phi i32 [ -1, %5 ], [ 0, %10 ], [ 0, %8 ]
  ret i32 %.0
}